target datalayout = "e-m:e-p270:32:32-p271:32:32-p272:64:64-i64:64-i128:128-f80:128-n8:16:32:64-S128"
target triple = "x86_64-pc-linux-gnu"

@.str = private unnamed_addr constant [16 x i8] c"cgroup_common.c\00", align 1
@__func__.common_file_read_uints = private unnamed_addr constant [23 x i8] c"common_file_read_uints\00", align 1
@.str.1 = private unnamed_addr constant [3 x i8] c"%u\00", align 1
@.str.2 = private unnamed_addr constant [5 x i8] c"%llu\00", align 1

; Function Attrs: nounwind uwtable
define dso_local i32 @common_file_read_uints(ptr noundef %0, ptr noundef %1, ptr noundef %2, i32 noundef %3) #0 {
  %5 = alloca i32, align 4
  %6 = alloca ptr, align 8
  %7 = alloca ptr, align 8
  %8 = alloca ptr, align 8
  %9 = alloca i32, align 4
  %10 = alloca i32, align 4
  %11 = alloca i64, align 8
  %12 = alloca ptr, align 8
  %13 = alloca ptr, align 8
  %14 = alloca ptr, align 8
  %15 = alloca ptr, align 8
  %16 = alloca i64, align 8
  %17 = alloca i32, align 4
  store ptr %0, ptr %6, align 8
  store ptr %1, ptr %7, align 8
  store ptr %2, ptr %8, align 8
  store i32 %3, ptr %9, align 4
  call void @llvm.lifetime.start.p0(i64 4, ptr %10) #6
  call void @llvm.lifetime.start.p0(i64 8, ptr %11) #6
  call void @llvm.lifetime.start.p0(i64 8, ptr %12) #6
  store ptr null, ptr %12, align 8
  call void @llvm.lifetime.start.p0(i64 8, ptr %13) #6
  call void @llvm.lifetime.start.p0(i64 8, ptr %14) #6
  store ptr null, ptr %14, align 8
  call void @llvm.lifetime.start.p0(i64 8, ptr %15) #6
  store ptr null, ptr %15, align 8
  call void @llvm.lifetime.start.p0(i64 8, ptr %16) #6
  %18 = load ptr, ptr %7, align 8
  %19 = icmp eq ptr %18, null
  br i1 %19, label %23, label %20

20:                                               ; preds = %4
  %21 = load ptr, ptr %8, align 8
  %22 = icmp eq ptr %21, null
  br i1 %22, label %23, label %24

23:                                               ; preds = %20, %4
  store i32 -1, ptr %5, align 4
  store i32 1, ptr %17, align 4
  br label %116

24:                                               ; preds = %20
  %25 = load ptr, ptr %6, align 8
  %26 = call i64 @_read_cg_file(ptr noundef %25, ptr noundef %12)
  store i64 %26, ptr %11, align 8
  %27 = icmp slt i64 %26, 0
  br i1 %27, label %28, label %29

28:                                               ; preds = %24
  store i32 -1, ptr %5, align 4
  store i32 1, ptr %17, align 4
  br label %116

29:                                               ; preds = %24
  store i32 0, ptr %10, align 4
  %30 = load ptr, ptr %12, align 8
  store ptr %30, ptr %13, align 8
  br label %31

31:                                               ; preds = %35, %29
  %32 = load ptr, ptr %13, align 8
  %33 = call ptr @xstrchr(ptr noundef %32, i32 noundef 10)
  %34 = icmp ne ptr %33, null
  br i1 %34, label %35, label %41

35:                                               ; preds = %31
  %36 = load i32, ptr %10, align 4
  %37 = add nsw i32 %36, 1
  store i32 %37, ptr %10, align 4
  %38 = load ptr, ptr %13, align 8
  %39 = call ptr @xstrchr(ptr noundef %38, i32 noundef 10)
  %40 = getelementptr inbounds i8, ptr %39, i64 1
  store ptr %40, ptr %13, align 8
  br label %31, !llvm.loop !8

41:                                               ; preds = %31
  %42 = load i32, ptr %9, align 4
  %43 = icmp eq i32 %42, 32
  br i1 %43, label %44, label %70

44:                                               ; preds = %41
  %45 = load i32, ptr %10, align 4
  %46 = icmp sgt i32 %45, 0
  br i1 %46, label %47, label %69

47:                                               ; preds = %44
  %48 = load i32, ptr %10, align 4
  %49 = sext i32 %48 to i64
  %50 = call ptr @slurm_xcalloc(i64 noundef %49, i64 noundef 4, i1 noundef zeroext true, i1 noundef zeroext false, ptr noundef @.str, i32 noundef 209, ptr noundef @__func__.common_file_read_uints)
  store ptr %50, ptr %14, align 8
  %51 = load ptr, ptr %12, align 8
  store ptr %51, ptr %13, align 8
  store i32 0, ptr %10, align 4
  br label %52

52:                                               ; preds = %56, %47
  %53 = load ptr, ptr %13, align 8
  %54 = call ptr @xstrchr(ptr noundef %53, i32 noundef 10)
  %55 = icmp ne ptr %54, null
  br i1 %55, label %56, label %68

56:                                               ; preds = %52
  %57 = load ptr, ptr %13, align 8
  %58 = load ptr, ptr %14, align 8
  %59 = load i32, ptr %10, align 4
  %60 = sext i32 %59 to i64
  %61 = getelementptr inbounds i32, ptr %58, i64 %60
  %62 = call i32 (ptr, ptr, ...) @__isoc99_sscanf(ptr noundef %57, ptr noundef @.str.1, ptr noundef %61) #6
  %63 = load ptr, ptr %13, align 8
  %64 = call ptr @xstrchr(ptr noundef %63, i32 noundef 10)
  %65 = getelementptr inbounds i8, ptr %64, i64 1
  store ptr %65, ptr %13, align 8
  %66 = load i32, ptr %10, align 4
  %67 = add nsw i32 %66, 1
  store i32 %67, ptr %10, align 4
  br label %52, !llvm.loop !11

68:                                               ; preds = %52
  br label %69

69:                                               ; preds = %68, %44
  br label %100

70:                                               ; preds = %41
  %71 = load i32, ptr %9, align 4
  %72 = icmp eq i32 %71, 64
  br i1 %72, label %73, label %99

73:                                               ; preds = %70
  %74 = load i32, ptr %10, align 4
  %75 = icmp sgt i32 %74, 0
  br i1 %75, label %76, label %98

76:                                               ; preds = %73
  %77 = load i32, ptr %10, align 4
  %78 = sext i32 %77 to i64
  %79 = call ptr @slurm_xcalloc(i64 noundef %78, i64 noundef 8, i1 noundef zeroext true, i1 noundef zeroext false, ptr noundef @.str, i32 noundef 221, ptr noundef @__func__.common_file_read_uints)
  store ptr %79, ptr %15, align 8
  %80 = load ptr, ptr %12, align 8
  store ptr %80, ptr %13, align 8
  store i32 0, ptr %10, align 4
  br label %81

81:                                               ; preds = %85, %76
  %82 = load ptr, ptr %13, align 8
  %83 = call ptr @xstrchr(ptr noundef %82, i32 noundef 10)
  %84 = icmp ne ptr %83, null
  br i1 %84, label %85, label %97

85:                                               ; preds = %81
  %86 = load ptr, ptr %13, align 8
  %87 = call i32 (ptr, ptr, ...) @__isoc99_sscanf(ptr noundef %86, ptr noundef @.str.2, ptr noundef %16) #6
  %88 = load i64, ptr %16, align 8
  %89 = load ptr, ptr %15, align 8
  %90 = load i32, ptr %10, align 4
  %91 = add nsw i32 %90, 1
  store i32 %91, ptr %10, align 4
  %92 = sext i32 %90 to i64
  %93 = getelementptr inbounds i64, ptr %89, i64 %92
  store i64 %88, ptr %93, align 8
  %94 = load ptr, ptr %13, align 8
  %95 = call ptr @xstrchr(ptr noundef %94, i32 noundef 10)
  %96 = getelementptr inbounds i8, ptr %95, i64 1
  store ptr %96, ptr %13, align 8
  br label %81, !llvm.loop !12

97:                                               ; preds = %81
  br label %98

98:                                               ; preds = %97, %73
  br label %99

99:                                               ; preds = %98, %70
  br label %100

100:                                              ; preds = %99, %69
  call void @slurm_xfree(ptr noundef %12)
  %101 = load i32, ptr %9, align 4
  %102 = icmp eq i32 %101, 32
  br i1 %102, label %103, label %106

103:                                              ; preds = %100
  %104 = load ptr, ptr %14, align 8
  %105 = load ptr, ptr %7, align 8
  store ptr %104, ptr %105, align 8
  br label %113

106:                                              ; preds = %100
  %107 = load i32, ptr %9, align 4
  %108 = icmp eq i32 %107, 64
  br i1 %108, label %109, label %112

109:                                              ; preds = %106
  %110 = load ptr, ptr %15, align 8
  %111 = load ptr, ptr %7, align 8
  store ptr %110, ptr %111, align 8
  br label %112

112:                                              ; preds = %109, %106
  br label %113

113:                                              ; preds = %112, %103
  %114 = load i32, ptr %10, align 4
  %115 = load ptr, ptr %8, align 8
  store i32 %114, ptr %115, align 4
  store i32 0, ptr %5, align 4
  store i32 1, ptr %17, align 4
  br label %116

116:                                              ; preds = %113, %28, %23
  call void @llvm.lifetime.end.p0(i64 8, ptr %16) #6
  call void @llvm.lifetime.end.p0(i64 8, ptr %15) #6
  call void @llvm.lifetime.end.p0(i64 8, ptr %14) #6
  call void @llvm.lifetime.end.p0(i64 8, ptr %13) #6
  call void @llvm.lifetime.end.p0(i64 8, ptr %12) #6
  call void @llvm.lifetime.end.p0(i64 8, ptr %11) #6
  call void @llvm.lifetime.end.p0(i64 4, ptr %10) #6
  %117 = load i32, ptr %5, align 4
  ret i32 %117
}